; Function Attrs: mustprogress uwtable
define hidden void @_Z21get_literal_atom_signR11ast_managerP4exprRS2_Rb(ptr noundef nonnull align 8 dereferenceable(976) %0, ptr noundef %1, ptr noundef nonnull writeonly align 8 captures(none) dereferenceable(8) initializes((0, 8)) %2, ptr noundef nonnull writeonly align 1 captures(none) dereferenceable(1) initializes((0, 1)) %3) local_unnamed_addr #3 {
  %5 = getelementptr inbounds nuw i8, ptr %1, i64 4
  %6 = load i32, ptr %5, align 4
  %7 = and i32 %6, 65535
  %8 = icmp eq i32 %7, 2
  br i1 %8, label %_Z7is_atomR11ast_managerP4expr.exit.thread11, label %9

9:                                                ; preds = %4
  %10 = tail call noundef zeroext i1 @_ZNK11ast_manager7is_boolEPK4expr(ptr noundef nonnull align 8 dereferenceable(976) %0, ptr noundef nonnull %1)
  br i1 %10, label %11, label %_Z7is_atomR11ast_managerP4expr.exit.thread11

11:                                               ; preds = %9
  %12 = load i32, ptr %5, align 4
  %13 = and i32 %12, 65535
  %14 = icmp eq i32 %13, 1
  br i1 %14, label %_Z7is_atomR11ast_managerP4expr.exit.thread, label %15

15:                                               ; preds = %11
  %16 = getelementptr inbounds nuw i8, ptr %1, i64 16
  %17 = load ptr, ptr %16, align 8, !tbaa !52
  %18 = getelementptr inbounds nuw i8, ptr %17, i64 24
  %19 = load ptr, ptr %18, align 8, !tbaa !53
  %20 = icmp eq ptr %19, null
  br i1 %20, label %_Z7is_atomR11ast_managerP4expr.exit.thread, label %_ZNK3app13get_family_idEv.exit.i

_ZNK3app13get_family_idEv.exit.i:                 ; preds = %15
  %21 = load i32, ptr %19, align 8, !tbaa !56
  %.not.i = icmp eq i32 %21, 0
  br i1 %.not.i, label %22, label %_Z7is_atomR11ast_managerP4expr.exit.thread

22:                                               ; preds = %_ZNK3app13get_family_idEv.exit.i
  %23 = icmp eq i32 %13, 0
  br i1 %23, label %_ZNK11ast_manager5is_eqEPK4expr.exit.i, label %_ZNK11ast_manager5is_eqEPK4expr.exit.thread.i

_ZNK11ast_manager5is_eqEPK4expr.exit.i:           ; preds = %22
  %24 = getelementptr inbounds nuw i8, ptr %19, i64 4
  %25 = load i32, ptr %24, align 4
  %26 = icmp eq i32 %25, 2
  br i1 %26, label %27, label %_ZNK11ast_manager5is_eqEPK4expr.exit.thread.i

27:                                               ; preds = %_ZNK11ast_manager5is_eqEPK4expr.exit.i
  %28 = getelementptr inbounds nuw i8, ptr %1, i64 32
  %29 = load ptr, ptr %28, align 8, !tbaa !3
  %30 = tail call noundef zeroext i1 @_ZNK11ast_manager7is_boolEPK4expr(ptr noundef nonnull align 8 dereferenceable(976) %0, ptr noundef %29)
  %31 = getelementptr inbounds nuw i8, ptr %0, i64 856
  %32 = load ptr, ptr %31, align 8
  %33 = icmp ne ptr %1, %32
  %or.cond.not.i = select i1 %30, i1 %33, i1 false
  br i1 %or.cond.not.i, label %_Z7is_atomR11ast_managerP4expr.exit, label %_Z7is_atomR11ast_managerP4expr.exit.thread

_ZNK11ast_manager5is_eqEPK4expr.exit.thread.i:    ; preds = %_ZNK11ast_manager5is_eqEPK4expr.exit.i, %22
  %.old.i = getelementptr inbounds nuw i8, ptr %0, i64 856
  %.old17.i = load ptr, ptr %.old.i, align 8, !tbaa !60
  %.old18.i = icmp eq ptr %1, %.old17.i
  br i1 %.old18.i, label %_Z7is_atomR11ast_managerP4expr.exit.thread, label %_Z7is_atomR11ast_managerP4expr.exit

_Z7is_atomR11ast_managerP4expr.exit:              ; preds = %27, %_ZNK11ast_manager5is_eqEPK4expr.exit.thread.i
  %34 = getelementptr inbounds nuw i8, ptr %0, i64 864
  %35 = load ptr, ptr %34, align 8, !tbaa !121
  %36 = icmp eq ptr %1, %35
  br i1 %36, label %_Z7is_atomR11ast_managerP4expr.exit.thread, label %_Z7is_atomR11ast_managerP4expr.exit.thread11

_Z7is_atomR11ast_managerP4expr.exit.thread11:     ; preds = %4, %9, %_Z7is_atomR11ast_managerP4expr.exit
  %37 = getelementptr inbounds nuw i8, ptr %1, i64 32
  %38 = load ptr, ptr %37, align 8, !tbaa !3
  br label %_Z7is_atomR11ast_managerP4expr.exit.thread

_Z7is_atomR11ast_managerP4expr.exit.thread:       ; preds = %15, %27, %_ZNK11ast_manager5is_eqEPK4expr.exit.thread.i, %_ZNK3app13get_family_idEv.exit.i, %11, %_Z7is_atomR11ast_managerP4expr.exit, %_Z7is_atomR11ast_managerP4expr.exit.thread11
  %storemerge8 = phi ptr [ %38, %_Z7is_atomR11ast_managerP4expr.exit.thread11 ], [ %1, %_Z7is_atomR11ast_managerP4expr.exit ], [ %1, %11 ], [ %1, %_ZNK3app13get_family_idEv.exit.i ], [ %1, %_ZNK11ast_manager5is_eqEPK4expr.exit.thread.i ], [ %1, %27 ], [ %1, %15 ]
  %storemerge = phi i8 [ 1, %_Z7is_atomR11ast_managerP4expr.exit.thread11 ], [ 0, %_Z7is_atomR11ast_managerP4expr.exit ], [ 0, %11 ], [ 0, %_ZNK3app13get_family_idEv.exit.i ], [ 0, %_ZNK11ast_manager5is_eqEPK4expr.exit.thread.i ], [ 0, %27 ], [ 0, %15 ]
  store ptr %storemerge8, ptr %2, align 8, !tbaa !3
  store i8 %storemerge, ptr %3, align 1, !tbaa !122
  ret void
}